; ModuleID = '43/626.c'
source_filename = "43/626.c"
target datalayout = "e-m:e-p270:32:32-p271:32:32-p272:64:64-i64:64-f80:128-n8:16:32:64-S128"
target triple = "x86_64-pc-linux-gnu"

@.str = private unnamed_addr constant [3 x i8] c"%d\00", align 1
@.str.1 = private unnamed_addr constant [7 x i8] c"%d %d\0A\00", align 1

; Function Attrs: noinline nounwind uwtable
define dso_local i32 @main() #0 {
  %1 = alloca i32, align 4
  %2 = alloca i32, align 4
  %3 = alloca i32, align 4
  %4 = alloca i32, align 4
  %5 = alloca i32, align 4
  %6 = alloca i32, align 4
  %7 = alloca double, align 8
  store i32 0, i32* %1, align 4
  %8 = call i32 (i8*, ...) @__isoc99_scanf(i8* getelementptr inbounds ([3 x i8], [3 x i8]* @.str, i64 0, i64 0), i32* %2)
  store i32 3, i32* %3, align 4
  br label %9

9:                                                ; preds = %90, %0
  %10 = load i32, i32* %3, align 4
  %11 = load i32, i32* %2, align 4
  %12 = mul nsw i32 2, %11
  %13 = sub nsw i32 %12, 1
  %14 = icmp sle i32 %10, %13
  br i1 %14, label %15, label %93

15:                                               ; preds = %9
  %16 = load i32, i32* %3, align 4
  %17 = sitofp i32 %16 to double
  store double %17, double* %7, align 8
  %18 = load double, double* %7, align 8
  %19 = call double @sqrt(double %18) #3
  %20 = fptosi double %19 to i32
  %21 = add nsw i32 %20, 1
  store i32 %21, i32* %6, align 4
  store i32 2, i32* %5, align 4
  br label %22

22:                                               ; preds = %33, %15
  %23 = load i32, i32* %5, align 4
  %24 = load i32, i32* %6, align 4
  %25 = icmp slt i32 %23, %24
  br i1 %25, label %26, label %36

26:                                               ; preds = %22
  %27 = load i32, i32* %3, align 4
  %28 = load i32, i32* %5, align 4
  %29 = srem i32 %27, %28
  %30 = icmp eq i32 %29, 0
  br i1 %30, label %31, label %32

31:                                               ; preds = %26
  br label %36

32:                                               ; preds = %26
  br label %33

33:                                               ; preds = %32
  %34 = load i32, i32* %5, align 4
  %35 = add nsw i32 %34, 1
  store i32 %35, i32* %5, align 4
  br label %22

36:                                               ; preds = %31, %22
  %37 = load i32, i32* %6, align 4
  %38 = load i32, i32* %5, align 4
  %39 = icmp eq i32 %37, %38
  br i1 %39, label %40, label %89

40:                                               ; preds = %36
  %41 = load i32, i32* %3, align 4
  store i32 %41, i32* %4, align 4
  br label %42

42:                                               ; preds = %85, %40
  %43 = load i32, i32* %4, align 4
  %44 = load i32, i32* %2, align 4
  %45 = load i32, i32* %3, align 4
  %46 = sub nsw i32 %44, %45
  %47 = icmp sle i32 %43, %46
  br i1 %47, label %48, label %88

48:                                               ; preds = %42
  %49 = load i32, i32* %4, align 4
  %50 = sitofp i32 %49 to double
  store double %50, double* %7, align 8
  %51 = load double, double* %7, align 8
  %52 = call double @sqrt(double %51) #3
  %53 = fptosi double %52 to i32
  %54 = add nsw i32 %53, 1
  store i32 %54, i32* %6, align 4
  store i32 2, i32* %5, align 4
  br label %55

55:                                               ; preds = %66, %48
  %56 = load i32, i32* %5, align 4
  %57 = load i32, i32* %6, align 4
  %58 = icmp slt i32 %56, %57
  br i1 %58, label %59, label %69

59:                                               ; preds = %55
  %60 = load i32, i32* %4, align 4
  %61 = load i32, i32* %5, align 4
  %62 = srem i32 %60, %61
  %63 = icmp eq i32 %62, 0
  br i1 %63, label %64, label %65

64:                                               ; preds = %59
  br label %69

65:                                               ; preds = %59
  br label %66

66:                                               ; preds = %65
  %67 = load i32, i32* %5, align 4
  %68 = add nsw i32 %67, 1
  store i32 %68, i32* %5, align 4
  br label %55

69:                                               ; preds = %64, %55
  %70 = load i32, i32* %6, align 4
  %71 = load i32, i32* %5, align 4
  %72 = icmp eq i32 %70, %71
  br i1 %72, label %73, label %84

73:                                               ; preds = %69
  %74 = load i32, i32* %2, align 4
  %75 = load i32, i32* %3, align 4
  %76 = load i32, i32* %4, align 4
  %77 = add nsw i32 %75, %76
  %78 = icmp eq i32 %74, %77
  br i1 %78, label %79, label %83

79:                                               ; preds = %73
  %80 = load i32, i32* %3, align 4
  %81 = load i32, i32* %4, align 4
  %82 = call i32 (i8*, ...) @printf(i8* getelementptr inbounds ([7 x i8], [7 x i8]* @.str.1, i64 0, i64 0), i32 %80, i32 %81)
  br label %83

83:                                               ; preds = %79, %73
  br label %84

84:                                               ; preds = %83, %69
  br label %85

85:                                               ; preds = %84
  %86 = load i32, i32* %4, align 4
  %87 = add nsw i32 %86, 2
  store i32 %87, i32* %4, align 4
  br label %42

88:                                               ; preds = %42
  br label %89

89:                                               ; preds = %88, %36
  br label %90

90:                                               ; preds = %89
  %91 = load i32, i32* %3, align 4
  %92 = add nsw i32 %91, 2
  store i32 %92, i32* %3, align 4
  br label %9

93:                                               ; preds = %9
  ret i32 0
}

declare dso_local i32 @__isoc99_scanf(i8*, ...) #1

; Function Attrs: nounwind
declare dso_local double @sqrt(double) #2

declare dso_local i32 @printf(i8*, ...) #1


!llvm.module.flags = !{!0}
!llvm.ident = !{!1}

!0 = !{i32 1, !"wchar_size", i32 4}
!1 = !{!"clang version 10.0.0-4ubuntu1 "}
